---
triple:          'arm64-apple-darwin'
binary-path:     '/Users/aminnazari/Desktop/Program/Hangman game/output/main'
relocations:
  - { offsetInCU: 0x3237, offset: 0x3237, size: 0x8, addend: 0x0, symName: __ZNSt3__124__put_character_sequenceB8ue170006IcNS_11char_traitsIcEEEERNS_13basic_ostreamIT_T0_EES7_PKS4_m, symObjAddr: 0x108C, symBinAddr: 0x100004368, symSize: 0x1F4 }
  - { offsetInCU: 0x6295, offset: 0x6295, size: 0x8, addend: 0x0, symName: __ZNSt3__1lsB8ue170006INS_11char_traitsIcEEEERNS_13basic_ostreamIcT_EES6_PKc, symObjAddr: 0x2FC, symBinAddr: 0x1000035D8, symSize: 0x48 }
  - { offsetInCU: 0x62DB, offset: 0x62DB, size: 0x8, addend: 0x0, symName: __ZNSt3__14endlB8ue170006IcNS_11char_traitsIcEEEERNS_13basic_ostreamIT_T0_EES7_, symObjAddr: 0x370, symBinAddr: 0x10000364C, symSize: 0x58 }
  - { offsetInCU: 0x631B, offset: 0x631B, size: 0x8, addend: 0x0, symName: __ZNSt3__1neB8ue170006IPKcEEbRKNS_11__wrap_iterIT_EES7_, symObjAddr: 0x5DC, symBinAddr: 0x1000038B8, symSize: 0x34 }
  - { offsetInCU: 0x635E, offset: 0x635E, size: 0x8, addend: 0x0, symName: __ZNSt3__14findB8ue170006INS_11__wrap_iterIPKcEEcEET_S5_S5_RKT0_, symObjAddr: 0x628, symBinAddr: 0x100003904, symSize: 0x78 }
  - { offsetInCU: 0x63C6, offset: 0x63C6, size: 0x8, addend: 0x0, symName: __ZNSt3__1lsB8ue170006INS_11char_traitsIcEEEERNS_13basic_ostreamIcT_EES6_c, symObjAddr: 0x700, symBinAddr: 0x1000039DC, symSize: 0x34 }
  - { offsetInCU: 0x640C, offset: 0x640C, size: 0x8, addend: 0x0, symName: __ZNSt3__1neB8ue170006IPcEEbRKNS_11__wrap_iterIT_EES6_, symObjAddr: 0xC2C, symBinAddr: 0x100003F08, symSize: 0x34 }
  - { offsetInCU: 0x644F, offset: 0x644F, size: 0x8, addend: 0x0, symName: __ZNSt3__1eqB8ue170006IPcEEbRKNS_11__wrap_iterIT_EES6_, symObjAddr: 0xD4C, symBinAddr: 0x100004028, symSize: 0x48 }
  - { offsetInCU: 0x6492, offset: 0x6492, size: 0x8, addend: 0x0, symName: __ZNSt3__14findB8ue170006INS_11__wrap_iterIPcEEcEET_S4_S4_RKT0_, symObjAddr: 0xD94, symBinAddr: 0x100004070, symSize: 0x78 }
  - { offsetInCU: 0x64FA, offset: 0x64FA, size: 0x8, addend: 0x0, symName: __ZNSt3__1rsB8ue170006IcNS_11char_traitsIcEEEERNS_13basic_istreamIT_T0_EES7_RS4_, symObjAddr: 0xE0C, symBinAddr: 0x1000040E8, symSize: 0x190 }
  - { offsetInCU: 0x657C, offset: 0x657C, size: 0x8, addend: 0x0, symName: __ZNSt3__1lsB8ue170006IcNS_11char_traitsIcEENS_9allocatorIcEEEERNS_13basic_ostreamIT_T0_EES9_RKNS_12basic_stringIS6_S7_T1_EE, symObjAddr: 0x1008, symBinAddr: 0x1000042E4, symSize: 0x4C }
  - { offsetInCU: 0x65D4, offset: 0x65D4, size: 0x8, addend: 0x0, symName: __ZNSt3__116__pad_and_outputB8ue170006IcNS_11char_traitsIcEEEENS_19ostreambuf_iteratorIT_T0_EES6_PKS4_S8_S8_RNS_8ios_baseES4_, symObjAddr: 0x12E4, symBinAddr: 0x1000045C0, symSize: 0x248 }
  - { offsetInCU: 0x66A3, offset: 0x66A3, size: 0x8, addend: 0x0, symName: __ZNSt3__112__to_addressB8ue170006IKcEEPT_S3_, symObjAddr: 0x1854, symBinAddr: 0x100004B30, symSize: 0x14 }
  - { offsetInCU: 0x66D8, offset: 0x66D8, size: 0x8, addend: 0x0, symName: __ZNSt3__130__libcpp_is_constant_evaluatedB8ue170006Ev, symObjAddr: 0x1980, symBinAddr: 0x100004C5C, symSize: 0xC }
  - { offsetInCU: 0x6733, offset: 0x6733, size: 0x8, addend: 0x0, symName: __ZNSt3__19use_facetB8ue170006INS_5ctypeIcEEEERKT_RKNS_6localeE, symObjAddr: 0x1B38, symBinAddr: 0x100004E14, symSize: 0x2C }
  - { offsetInCU: 0x6C00, offset: 0x6C00, size: 0x8, addend: 0x0, symName: __ZNSt3__118__constexpr_strlenB8ue170006EPKc, symObjAddr: 0x1BD0, symBinAddr: 0x100004EAC, symSize: 0x24 }
  - { offsetInCU: 0x6C2C, offset: 0x6C2C, size: 0x8, addend: 0x0, symName: __ZNSt3__1eqB8ue170006IPKcEEbRKNS_11__wrap_iterIT_EES7_, symObjAddr: 0x1D28, symBinAddr: 0x100005004, symSize: 0x48 }
  - { offsetInCU: 0x6C6F, offset: 0x6C6F, size: 0x8, addend: 0x0, symName: __ZNSt3__113__rewrap_iterB8ue170006INS_11__wrap_iterIPKcEES3_NS_18__unwrap_iter_implIS4_Lb1EEEEET_S7_T0_, symObjAddr: 0x1DB8, symBinAddr: 0x100005094, symSize: 0x60 }
  - { offsetInCU: 0x6CC4, offset: 0x6CC4, size: 0x8, addend: 0x0, symName: __ZNSt3__111__find_implB8ue170006IKccNS_10__identityELi0EEEPT_S4_S4_RKT0_RT1_, symObjAddr: 0x1E18, symBinAddr: 0x1000050F4, symSize: 0x78 }
  - { offsetInCU: 0x6D4B, offset: 0x6D4B, size: 0x8, addend: 0x0, symName: __ZNSt3__113__unwrap_iterB8ue170006INS_11__wrap_iterIPKcEENS_18__unwrap_iter_implIS4_Lb1EEELi0EEEDTclsrT0_8__unwrapclsr3stdE7declvalIT_EEEES8_, symObjAddr: 0x1E90, symBinAddr: 0x10000516C, symSize: 0x2C }
  - { offsetInCU: 0x6DE2, offset: 0x6DE2, size: 0x8, addend: 0x0, symName: __ZNSt3__112__to_addressB8ue170006INS_11__wrap_iterIPKcEEvEEu7__decayIDTclsr19__to_address_helperIT_EE6__callclsr3stdE7declvalIRKS5_EEEEES7_, symObjAddr: 0x1F4C, symBinAddr: 0x100005228, symSize: 0x24 }
  - { offsetInCU: 0x6E7F, offset: 0x6E7F, size: 0x8, addend: 0x0, symName: __ZNSt3__118__constexpr_memchrB8ue170006IKccEEPT_S3_T0_m, symObjAddr: 0x1FF4, symBinAddr: 0x1000052D0, symSize: 0xC0 }
  - { offsetInCU: 0x6EF5, offset: 0x6EF5, size: 0x8, addend: 0x0, symName: __ZNSt3__112__to_addressB8ue170006IcEEPT_S2_, symObjAddr: 0x2570, symBinAddr: 0x10000584C, symSize: 0x14 }
  - { offsetInCU: 0x6F2A, offset: 0x6F2A, size: 0x8, addend: 0x0, symName: __ZNSt3__119__libcpp_deallocateB8ue170006EPvmm, symObjAddr: 0x2670, symBinAddr: 0x10000594C, symSize: 0x30 }
  - { offsetInCU: 0x6F72, offset: 0x6F72, size: 0x8, addend: 0x0, symName: __ZNSt3__127__do_deallocate_handle_sizeB8ue170006IJEEEvPvmDpT_, symObjAddr: 0x26A0, symBinAddr: 0x10000597C, symSize: 0x28 }
  - { offsetInCU: 0x6FB0, offset: 0x6FB0, size: 0x8, addend: 0x0, symName: __ZNSt3__124__libcpp_operator_deleteB8ue170006IJPvEEEvDpT_, symObjAddr: 0x26C8, symBinAddr: 0x1000059A4, symSize: 0x24 }
  - { offsetInCU: 0x7023, offset: 0x7023, size: 0x8, addend: 0x0, symName: __ZNSt3__113__rewrap_iterB8ue170006INS_11__wrap_iterIPcEES2_NS_18__unwrap_iter_implIS3_Lb1EEEEET_S6_T0_, symObjAddr: 0x2928, symBinAddr: 0x100005C04, symSize: 0x60 }
  - { offsetInCU: 0x7078, offset: 0x7078, size: 0x8, addend: 0x0, symName: __ZNSt3__111__find_implB8ue170006IccNS_10__identityELi0EEEPT_S3_S3_RKT0_RT1_, symObjAddr: 0x2988, symBinAddr: 0x100005C64, symSize: 0x78 }
  - { offsetInCU: 0x70FF, offset: 0x70FF, size: 0x8, addend: 0x0, symName: __ZNSt3__113__unwrap_iterB8ue170006INS_11__wrap_iterIPcEENS_18__unwrap_iter_implIS3_Lb1EEELi0EEEDTclsrT0_8__unwrapclsr3stdE7declvalIT_EEEES7_, symObjAddr: 0x2A00, symBinAddr: 0x100005CDC, symSize: 0x2C }
  - { offsetInCU: 0x7196, offset: 0x7196, size: 0x8, addend: 0x0, symName: __ZNSt3__112__to_addressB8ue170006INS_11__wrap_iterIPcEEvEEu7__decayIDTclsr19__to_address_helperIT_EE6__callclsr3stdE7declvalIRKS4_EEEEES6_, symObjAddr: 0x2ABC, symBinAddr: 0x100005D98, symSize: 0x24 }
  - { offsetInCU: 0x7233, offset: 0x7233, size: 0x8, addend: 0x0, symName: __ZNSt3__118__constexpr_memchrB8ue170006IccEEPT_S2_T0_m, symObjAddr: 0x2B7C, symBinAddr: 0x100005E58, symSize: 0xC0 }
  - { offsetInCU: 0x7834, offset: 0x7834, size: 0x8, addend: 0x0, symName: __ZNSt3__13maxB8ue170006ImEERKT_S3_S3_, symObjAddr: 0x3388, symBinAddr: 0x100006664, symSize: 0x2C }
  - { offsetInCU: 0x7877, offset: 0x7877, size: 0x8, addend: 0x0, symName: __ZNSt3__13minB8ue170006ImEERKT_S3_S3_, symObjAddr: 0x33B4, symBinAddr: 0x100006690, symSize: 0x2C }
  - { offsetInCU: 0x7ABB, offset: 0x7ABB, size: 0x8, addend: 0x0, symName: __ZNSt3__13minB8ue170006ImNS_6__lessIvvEEEERKT_S5_S5_T0_, symObjAddr: 0x3440, symBinAddr: 0x10000671C, symSize: 0x54 }
  - { offsetInCU: 0x7B5A, offset: 0x7B5A, size: 0x8, addend: 0x0, symName: __ZNSt3__120__throw_length_errorB8ue170006EPKc, symObjAddr: 0x351C, symBinAddr: 0x1000067F8, symSize: 0x64 }
  - { offsetInCU: 0x7B84, offset: 0x7B84, size: 0x8, addend: 0x0, symName: __ZNSt3__13maxB8ue170006ImNS_6__lessIvvEEEERKT_S5_S5_T0_, symObjAddr: 0x3600, symBinAddr: 0x1000068DC, symSize: 0x54 }
  - { offsetInCU: 0x7BDE, offset: 0x7BDE, size: 0x8, addend: 0x0, symName: __ZNSt3__119__allocate_at_leastB8ue170006INS_9allocatorIcEEEENS_19__allocation_resultINS_16allocator_traitsIT_E7pointerEEERS5_m, symObjAddr: 0x3764, symBinAddr: 0x100006A40, symSize: 0x40 }
  - { offsetInCU: 0x7C21, offset: 0x7C21, size: 0x8, addend: 0x0, symName: __ZNSt3__117__libcpp_allocateB8ue170006Emm, symObjAddr: 0x3914, symBinAddr: 0x100006BF0, symSize: 0x28 }
  - { offsetInCU: 0x7C5E, offset: 0x7C5E, size: 0x8, addend: 0x0, symName: __ZNSt3__121__libcpp_operator_newB8ue170006IJmEEEPvDpT_, symObjAddr: 0x393C, symBinAddr: 0x100006C18, symSize: 0x24 }
  - { offsetInCU: 0x7C97, offset: 0x7C97, size: 0x8, addend: 0x0, symName: __ZNSt3__142__uninitialized_allocator_move_if_noexceptB8ue170006INS_9allocatorIcEENS_16reverse_iteratorIPcEES5_cvEET1_RT_T0_S9_S6_, symObjAddr: 0x39C4, symBinAddr: 0x100006CA0, symSize: 0xE8 }
  - { offsetInCU: 0x7D14, offset: 0x7D14, size: 0x8, addend: 0x0, symName: __ZNSt3__14swapB8ue170006IPcEEvRT_S3_, symObjAddr: 0x3AF8, symBinAddr: 0x100006DD4, symSize: 0x3C }
  - { offsetInCU: 0x7D65, offset: 0x7D65, size: 0x8, addend: 0x0, symName: __ZNSt3__1neB8ue170006IPcS1_EEbRKNS_16reverse_iteratorIT_EERKNS2_IT0_EE, symObjAddr: 0x3BE0, symBinAddr: 0x100006EBC, symSize: 0x48 }
  - { offsetInCU: 0x7DD6, offset: 0x7DD6, size: 0x8, addend: 0x0, symName: __ZNSt3__114__construct_atB8ue170006IcJcEPcEEPT_S3_DpOT0_, symObjAddr: 0x3C28, symBinAddr: 0x100006F04, symSize: 0x2C }
  - { offsetInCU: 0x7E46, offset: 0x7E46, size: 0x8, addend: 0x0, symName: __ZNSt3__112__to_addressB8ue170006INS_16reverse_iteratorIPcEEvEEu7__decayIDTclsr19__to_address_helperIT_EE6__callclsr3stdE7declvalIRKS4_EEEEES6_, symObjAddr: 0x3C54, symBinAddr: 0x100006F30, symSize: 0x24 }
  - { offsetInCU: 0x7E7C, offset: 0x7E7C, size: 0x8, addend: 0x0, symName: __ZNSt3__14moveB8ue170006INS_16reverse_iteratorIPcEES3_EET0_T_S5_S4_, symObjAddr: 0x3CC0, symBinAddr: 0x100006F9C, symSize: 0x78 }
  - { offsetInCU: 0x7EFF, offset: 0x7EFF, size: 0x8, addend: 0x0, symName: __ZNSt3__16__moveB8ue170006INS_17_ClassicAlgPolicyENS_16reverse_iteratorIPcEES4_S4_EENS_4pairIT0_T2_EES6_T1_S7_, symObjAddr: 0x3DA8, symBinAddr: 0x100007084, symSize: 0x64 }
  - { offsetInCU: 0x7F6B, offset: 0x7F6B, size: 0x8, addend: 0x0, symName: __ZNSt3__123__dispatch_copy_or_moveB8ue170006INS_17_ClassicAlgPolicyENS_11__move_loopIS1_EENS_14__move_trivialENS_16reverse_iteratorIPcEES7_S7_EENS_4pairIT2_T4_EES9_T3_SA_, symObjAddr: 0x3E0C, symBinAddr: 0x1000070E8, symSize: 0x64 }
  - { offsetInCU: 0x7FE9, offset: 0x7FE9, size: 0x8, addend: 0x0, symName: __ZNSt3__121__unwrap_and_dispatchB8ue170006INS_10__overloadINS_11__move_loopINS_17_ClassicAlgPolicyEEENS_14__move_trivialEEENS_16reverse_iteratorIPcEES9_S9_Li0EEENS_4pairIT0_T2_EESB_T1_SC_, symObjAddr: 0x3E70, symBinAddr: 0x10000714C, symSize: 0x12C }
  - { offsetInCU: 0x8079, offset: 0x8079, size: 0x8, addend: 0x0, symName: __ZNSt3__114__unwrap_rangeB8ue170006INS_16reverse_iteratorIPcEES3_EENS_4pairIT0_S5_EET_S7_, symObjAddr: 0x3F9C, symBinAddr: 0x100007278, symSize: 0x84 }
  - { offsetInCU: 0x81CD, offset: 0x81CD, size: 0x8, addend: 0x0, symName: __ZNSt3__113__unwrap_iterB8ue170006INS_16reverse_iteratorIPcEENS_18__unwrap_iter_implIS3_Lb0EEELi0EEEDTclsrT0_8__unwrapclsr3stdE7declvalIT_EEEES7_, symObjAddr: 0x40C0, symBinAddr: 0x10000739C, symSize: 0x44 }
  - { offsetInCU: 0x8211, offset: 0x8211, size: 0x8, addend: 0x0, symName: __ZNSt3__19make_pairB8ue170006INS_16reverse_iteratorIPcEES3_EENS_4pairINS_18__unwrap_ref_decayIT_E4typeENS5_IT0_E4typeEEEOS6_OS9_, symObjAddr: 0x4104, symBinAddr: 0x1000073E0, symSize: 0x38 }
  - { offsetInCU: 0x8260, offset: 0x8260, size: 0x8, addend: 0x0, symName: __ZNSt3__114__rewrap_rangeB8ue170006INS_16reverse_iteratorIPcEES3_EET_S4_T0_, symObjAddr: 0x413C, symBinAddr: 0x100007418, symSize: 0x5C }
  - { offsetInCU: 0x82AC, offset: 0x82AC, size: 0x8, addend: 0x0, symName: __ZNSt3__113__rewrap_iterB8ue170006INS_16reverse_iteratorIPcEES3_NS_18__unwrap_iter_implIS3_Lb0EEEEET_S6_T0_, symObjAddr: 0x4198, symBinAddr: 0x100007474, symSize: 0x88 }
  - { offsetInCU: 0x859A, offset: 0x859A, size: 0x8, addend: 0x0, symName: __ZSt28__throw_bad_array_new_lengthB8ue170006v, symObjAddr: 0x38E0, symBinAddr: 0x100006BBC, symSize: 0x34 }
  - { offsetInCU: 0x8AF6, offset: 0x8AF6, size: 0x8, addend: 0x0, symName: __ZNSt3__16vectorIcNS_9allocatorIcEEE26__swap_out_circular_bufferERNS_14__split_bufferIcRS2_EE, symObjAddr: 0x31BC, symBinAddr: 0x100006498, symSize: 0x110 }
  - { offsetInCU: 0xAE74, offset: 0xAE74, size: 0x8, addend: 0x0, symName: __Z11drawHangmani, symObjAddr: 0x0, symBinAddr: 0x1000032DC, symSize: 0x2FC }
  - { offsetInCU: 0xAE9D, offset: 0xAE9D, size: 0x8, addend: 0x0, symName: __ZNSt3__113basic_ostreamIcNS_11char_traitsIcEEElsB8ue170006EPFRS3_S4_E, symObjAddr: 0x344, symBinAddr: 0x100003620, symSize: 0x2C }
  - { offsetInCU: 0xAECF, offset: 0xAECF, size: 0x8, addend: 0x0, symName: __Z8containsRKNSt3__112basic_stringIcNS_11char_traitsIcEENS_9allocatorIcEEEEc, symObjAddr: 0x3C8, symBinAddr: 0x1000036A4, symSize: 0x3C }
  - { offsetInCU: 0xAF0A, offset: 0xAF0A, size: 0x8, addend: 0x0, symName: __Z11displayWordRKNSt3__112basic_stringIcNS_11char_traitsIcEENS_9allocatorIcEEEERKNS_6vectorIcS4_EE, symObjAddr: 0x404, symBinAddr: 0x1000036E0, symSize: 0x124 }
  - { offsetInCU: 0xAF92, offset: 0xAF92, size: 0x8, addend: 0x0, symName: __ZNKSt3__112basic_stringIcNS_11char_traitsIcEENS_9allocatorIcEEE5beginB8ue170006Ev, symObjAddr: 0x528, symBinAddr: 0x100003804, symSize: 0x60 }
  - { offsetInCU: 0xAFB7, offset: 0xAFB7, size: 0x8, addend: 0x0, symName: __ZNKSt3__112basic_stringIcNS_11char_traitsIcEENS_9allocatorIcEEE3endB8ue170006Ev, symObjAddr: 0x588, symBinAddr: 0x100003864, symSize: 0x54 }
  - { offsetInCU: 0xAFDC, offset: 0xAFDC, size: 0x8, addend: 0x0, symName: __ZNKSt3__111__wrap_iterIPKcEdeB8ue170006Ev, symObjAddr: 0x610, symBinAddr: 0x1000038EC, symSize: 0x18 }
  - { offsetInCU: 0xB000, offset: 0xB000, size: 0x8, addend: 0x0, symName: __ZNKSt3__16vectorIcNS_9allocatorIcEEE5beginB8ue170006Ev, symObjAddr: 0x6A0, symBinAddr: 0x10000397C, symSize: 0x30 }
  - { offsetInCU: 0xB026, offset: 0xB026, size: 0x8, addend: 0x0, symName: __ZNKSt3__16vectorIcNS_9allocatorIcEEE3endB8ue170006Ev, symObjAddr: 0x6D0, symBinAddr: 0x1000039AC, symSize: 0x30 }
  - { offsetInCU: 0xB04D, offset: 0xB04D, size: 0x8, addend: 0x0, symName: __ZNSt3__111__wrap_iterIPKcEppB8ue170006Ev, symObjAddr: 0x734, symBinAddr: 0x100003A10, symSize: 0x20 }
  - { offsetInCU: 0xB072, offset: 0xB072, size: 0x8, addend: 0x0, symName: _main, symObjAddr: 0x754, symBinAddr: 0x100003A30, symSize: 0x418 }
  - { offsetInCU: 0xB1A9, offset: 0xB1A9, size: 0x8, addend: 0x0, symName: __ZNSt3__112basic_stringIcNS_11char_traitsIcEENS_9allocatorIcEEEC1B8ue170006ILi0EEEPKc, symObjAddr: 0xB6C, symBinAddr: 0x100003E48, symSize: 0x34 }
  - { offsetInCU: 0xB1E7, offset: 0xB1E7, size: 0x8, addend: 0x0, symName: __ZNSt3__16vectorIcNS_9allocatorIcEEEC1B8ue170006Ev, symObjAddr: 0xBA0, symBinAddr: 0x100003E7C, symSize: 0x2C }
  - { offsetInCU: 0xB20F, offset: 0xB20F, size: 0x8, addend: 0x0, symName: __ZNSt3__16vectorIcNS_9allocatorIcEEE5beginB8ue170006Ev, symObjAddr: 0xBCC, symBinAddr: 0x100003EA8, symSize: 0x30 }
  - { offsetInCU: 0xB235, offset: 0xB235, size: 0x8, addend: 0x0, symName: __ZNSt3__16vectorIcNS_9allocatorIcEEE3endB8ue170006Ev, symObjAddr: 0xBFC, symBinAddr: 0x100003ED8, symSize: 0x30 }
  - { offsetInCU: 0xB25C, offset: 0xB25C, size: 0x8, addend: 0x0, symName: __ZNKSt3__111__wrap_iterIPcEdeB8ue170006Ev, symObjAddr: 0xC60, symBinAddr: 0x100003F3C, symSize: 0x18 }
  - { offsetInCU: 0xB281, offset: 0xB281, size: 0x8, addend: 0x0, symName: __ZNSt3__111__wrap_iterIPcEppB8ue170006Ev, symObjAddr: 0xC78, symBinAddr: 0x100003F54, symSize: 0x20 }
  - { offsetInCU: 0xB2A6, offset: 0xB2A6, size: 0x8, addend: 0x0, symName: __ZNSt3__112basic_stringIcNS_11char_traitsIcEENS_9allocatorIcEEE5beginB8ue170006Ev, symObjAddr: 0xC98, symBinAddr: 0x100003F74, symSize: 0x60 }
  - { offsetInCU: 0xB2CB, offset: 0xB2CB, size: 0x8, addend: 0x0, symName: __ZNSt3__112basic_stringIcNS_11char_traitsIcEENS_9allocatorIcEEE3endB8ue170006Ev, symObjAddr: 0xCF8, symBinAddr: 0x100003FD4, symSize: 0x54 }
  - { offsetInCU: 0xB2EF, offset: 0xB2EF, size: 0x8, addend: 0x0, symName: __ZNSt3__16vectorIcNS_9allocatorIcEEE9push_backB8ue170006ERKc, symObjAddr: 0xF9C, symBinAddr: 0x100004278, symSize: 0x6C }
  - { offsetInCU: 0xB325, offset: 0xB325, size: 0x8, addend: 0x0, symName: __ZNSt3__16vectorIcNS_9allocatorIcEEED1B8ue170006Ev, symObjAddr: 0x1054, symBinAddr: 0x100004330, symSize: 0x2C }
  - { offsetInCU: 0xB34E, offset: 0xB34E, size: 0x8, addend: 0x0, symName: __ZNSt3__111char_traitsIcE6lengthB8ue170006EPKc, symObjAddr: 0x1280, symBinAddr: 0x10000455C, symSize: 0x48 }
  - { offsetInCU: 0xB38F, offset: 0xB38F, size: 0x8, addend: 0x0, symName: __ZNKSt3__113basic_ostreamIcNS_11char_traitsIcEEE6sentrycvbB8ue170006Ev, symObjAddr: 0x12C8, symBinAddr: 0x1000045A4, symSize: 0x1C }
  - { offsetInCU: 0xB3B4, offset: 0xB3B4, size: 0x8, addend: 0x0, symName: __ZNSt3__119ostreambuf_iteratorIcNS_11char_traitsIcEEEC1B8ue170006ERNS_13basic_ostreamIcS2_EE, symObjAddr: 0x152C, symBinAddr: 0x100004808, symSize: 0x34 }
  - { offsetInCU: 0xB3EB, offset: 0xB3EB, size: 0x8, addend: 0x0, symName: __ZNKSt3__18ios_base5flagsB8ue170006Ev, symObjAddr: 0x1560, symBinAddr: 0x10000483C, symSize: 0x18 }
  - { offsetInCU: 0xB411, offset: 0xB411, size: 0x8, addend: 0x0, symName: __ZNKSt3__19basic_iosIcNS_11char_traitsIcEEE4fillB8ue170006Ev, symObjAddr: 0x1578, symBinAddr: 0x100004854, symSize: 0x64 }
  - { offsetInCU: 0xB438, offset: 0xB438, size: 0x8, addend: 0x0, symName: __ZNKSt3__119ostreambuf_iteratorIcNS_11char_traitsIcEEE6failedB8ue170006Ev, symObjAddr: 0x15DC, symBinAddr: 0x1000048B8, symSize: 0x24 }
  - { offsetInCU: 0xB45D, offset: 0xB45D, size: 0x8, addend: 0x0, symName: __ZNSt3__19basic_iosIcNS_11char_traitsIcEEE8setstateB8ue170006Ej, symObjAddr: 0x1600, symBinAddr: 0x1000048DC, symSize: 0x2C }
  - { offsetInCU: 0xB491, offset: 0xB491, size: 0x8, addend: 0x0, symName: __ZNKSt3__18ios_base5widthB8ue170006Ev, symObjAddr: 0x162C, symBinAddr: 0x100004908, symSize: 0x18 }
  - { offsetInCU: 0xB4B8, offset: 0xB4B8, size: 0x8, addend: 0x0, symName: __ZNSt3__115basic_streambufIcNS_11char_traitsIcEEE5sputnB8ue170006EPKcl, symObjAddr: 0x1644, symBinAddr: 0x100004920, symSize: 0x3C }
  - { offsetInCU: 0xB4F9, offset: 0xB4F9, size: 0x8, addend: 0x0, symName: __ZNSt3__112basic_stringIcNS_11char_traitsIcEENS_9allocatorIcEEEC1B8ue170006Emc, symObjAddr: 0x1680, symBinAddr: 0x10000495C, symSize: 0x3C }
  - { offsetInCU: 0xB540, offset: 0xB540, size: 0x8, addend: 0x0, symName: __ZNKSt3__112basic_stringIcNS_11char_traitsIcEENS_9allocatorIcEEE4dataB8ue170006Ev, symObjAddr: 0x16BC, symBinAddr: 0x100004998, symSize: 0x28 }
  - { offsetInCU: 0xB565, offset: 0xB565, size: 0x8, addend: 0x0, symName: __ZNSt3__18ios_base5widthB8ue170006El, symObjAddr: 0x16E4, symBinAddr: 0x1000049C0, symSize: 0x2C }
  - { offsetInCU: 0xB5AA, offset: 0xB5AA, size: 0x8, addend: 0x0, symName: __ZNSt3__112basic_stringIcNS_11char_traitsIcEENS_9allocatorIcEEEC2B8ue170006Emc, symObjAddr: 0x1710, symBinAddr: 0x1000049EC, symSize: 0x4C }
  - { offsetInCU: 0xB5F6, offset: 0xB5F6, size: 0x8, addend: 0x0, symName: __ZNSt3__117__compressed_pairINS_12basic_stringIcNS_11char_traitsIcEENS_9allocatorIcEEE5__repES5_EC1B8ue170006INS_18__default_init_tagESA_EEOT_OT0_, symObjAddr: 0x175C, symBinAddr: 0x100004A38, symSize: 0x3C }
  - { offsetInCU: 0xB64D, offset: 0xB64D, size: 0x8, addend: 0x0, symName: __ZNSt3__117__compressed_pairINS_12basic_stringIcNS_11char_traitsIcEENS_9allocatorIcEEE5__repES5_EC2B8ue170006INS_18__default_init_tagESA_EEOT_OT0_, symObjAddr: 0x1798, symBinAddr: 0x100004A74, symSize: 0x3C }
  - { offsetInCU: 0xB6A4, offset: 0xB6A4, size: 0x8, addend: 0x0, symName: __ZNSt3__122__compressed_pair_elemINS_12basic_stringIcNS_11char_traitsIcEENS_9allocatorIcEEE5__repELi0ELb0EEC2B8ue170006ENS_18__default_init_tagE, symObjAddr: 0x17D4, symBinAddr: 0x100004AB0, symSize: 0x14 }
  - { offsetInCU: 0xB6D7, offset: 0xB6D7, size: 0x8, addend: 0x0, symName: __ZNSt3__122__compressed_pair_elemINS_9allocatorIcEELi1ELb1EEC2B8ue170006ENS_18__default_init_tagE, symObjAddr: 0x17E8, symBinAddr: 0x100004AC4, symSize: 0x2C }
  - { offsetInCU: 0xB70A, offset: 0xB70A, size: 0x8, addend: 0x0, symName: __ZNSt3__19allocatorIcEC2B8ue170006Ev, symObjAddr: 0x1814, symBinAddr: 0x100004AF0, symSize: 0x2C }
  - { offsetInCU: 0xB733, offset: 0xB733, size: 0x8, addend: 0x0, symName: __ZNSt3__116__non_trivial_ifILb1ENS_9allocatorIcEEEC2B8ue170006Ev, symObjAddr: 0x1840, symBinAddr: 0x100004B1C, symSize: 0x14 }
  - { offsetInCU: 0xB75C, offset: 0xB75C, size: 0x8, addend: 0x0, symName: __ZNKSt3__112basic_stringIcNS_11char_traitsIcEENS_9allocatorIcEEE13__get_pointerB8ue170006Ev, symObjAddr: 0x1868, symBinAddr: 0x100004B44, symSize: 0x54 }
  - { offsetInCU: 0xB781, offset: 0xB781, size: 0x8, addend: 0x0, symName: __ZNKSt3__112basic_stringIcNS_11char_traitsIcEENS_9allocatorIcEEE9__is_longB8ue170006Ev, symObjAddr: 0x18BC, symBinAddr: 0x100004B98, symSize: 0x74 }
  - { offsetInCU: 0xB7A6, offset: 0xB7A6, size: 0x8, addend: 0x0, symName: __ZNKSt3__112basic_stringIcNS_11char_traitsIcEENS_9allocatorIcEEE18__get_long_pointerB8ue170006Ev, symObjAddr: 0x1930, symBinAddr: 0x100004C0C, symSize: 0x28 }
  - { offsetInCU: 0xB7CB, offset: 0xB7CB, size: 0x8, addend: 0x0, symName: __ZNKSt3__112basic_stringIcNS_11char_traitsIcEENS_9allocatorIcEEE19__get_short_pointerB8ue170006Ev, symObjAddr: 0x1958, symBinAddr: 0x100004C34, symSize: 0x28 }
  - { offsetInCU: 0xB7F0, offset: 0xB7F0, size: 0x8, addend: 0x0, symName: __ZNKSt3__117__compressed_pairINS_12basic_stringIcNS_11char_traitsIcEENS_9allocatorIcEEE5__repES5_E5firstB8ue170006Ev, symObjAddr: 0x198C, symBinAddr: 0x100004C68, symSize: 0x24 }
  - { offsetInCU: 0xB815, offset: 0xB815, size: 0x8, addend: 0x0, symName: __ZNKSt3__122__compressed_pair_elemINS_12basic_stringIcNS_11char_traitsIcEENS_9allocatorIcEEE5__repELi0ELb0EE5__getB8ue170006Ev, symObjAddr: 0x19B0, symBinAddr: 0x100004C8C, symSize: 0x14 }
  - { offsetInCU: 0xB83A, offset: 0xB83A, size: 0x8, addend: 0x0, symName: __ZNSt3__114pointer_traitsIPKcE10pointer_toB8ue170006ERS1_, symObjAddr: 0x19C4, symBinAddr: 0x100004CA0, symSize: 0x14 }
  - { offsetInCU: 0xB85D, offset: 0xB85D, size: 0x8, addend: 0x0, symName: __ZNSt3__119ostreambuf_iteratorIcNS_11char_traitsIcEEEC2B8ue170006ERNS_13basic_ostreamIcS2_EE, symObjAddr: 0x19D8, symBinAddr: 0x100004CB4, symSize: 0x68 }
  - { offsetInCU: 0xB893, offset: 0xB893, size: 0x8, addend: 0x0, symName: __ZNKSt3__19basic_iosIcNS_11char_traitsIcEEE5rdbufB8ue170006Ev, symObjAddr: 0x1A40, symBinAddr: 0x100004D1C, symSize: 0x24 }
  - { offsetInCU: 0xB8BA, offset: 0xB8BA, size: 0x8, addend: 0x0, symName: __ZNKSt3__18ios_base5rdbufB8ue170006Ev, symObjAddr: 0x1A64, symBinAddr: 0x100004D40, symSize: 0x18 }
  - { offsetInCU: 0xB8DF, offset: 0xB8DF, size: 0x8, addend: 0x0, symName: __ZNSt3__111char_traitsIcE11eq_int_typeB8ue170006Eii, symObjAddr: 0x1A7C, symBinAddr: 0x100004D58, symSize: 0x28 }
  - { offsetInCU: 0xB912, offset: 0xB912, size: 0x8, addend: 0x0, symName: __ZNSt3__111char_traitsIcE3eofB8ue170006Ev, symObjAddr: 0x1AA4, symBinAddr: 0x100004D80, symSize: 0x8 }
  - { offsetInCU: 0xB925, offset: 0xB925, size: 0x8, addend: 0x0, symName: __ZNKSt3__19basic_iosIcNS_11char_traitsIcEEE5widenB8ue170006Ec, symObjAddr: 0x1AAC, symBinAddr: 0x100004D88, symSize: 0x8C }
  - { offsetInCU: 0xB992, offset: 0xB992, size: 0x8, addend: 0x0, symName: __ZNKSt3__15ctypeIcE5widenB8ue170006Ec, symObjAddr: 0x1B64, symBinAddr: 0x100004E40, symSize: 0x38 }
  - { offsetInCU: 0xB9C5, offset: 0xB9C5, size: 0x8, addend: 0x0, symName: __ZNSt3__18ios_base8setstateB8ue170006Ej, symObjAddr: 0x1B9C, symBinAddr: 0x100004E78, symSize: 0x34 }
  - { offsetInCU: 0xB9FB, offset: 0xB9FB, size: 0x8, addend: 0x0, symName: __ZNKSt3__112basic_stringIcNS_11char_traitsIcEENS_9allocatorIcEEE21__make_const_iteratorB8ue170006EPKc, symObjAddr: 0x1BF4, symBinAddr: 0x100004ED0, symSize: 0x30 }
  - { offsetInCU: 0xBA2F, offset: 0xBA2F, size: 0x8, addend: 0x0, symName: __ZNSt3__111__wrap_iterIPKcEC1B8ue170006ES2_, symObjAddr: 0x1C24, symBinAddr: 0x100004F00, symSize: 0x34 }
  - { offsetInCU: 0xBA66, offset: 0xBA66, size: 0x8, addend: 0x0, symName: __ZNSt3__111__wrap_iterIPKcEC2B8ue170006ES2_, symObjAddr: 0x1C58, symBinAddr: 0x100004F34, symSize: 0x20 }
  - { offsetInCU: 0xBA9D, offset: 0xBA9D, size: 0x8, addend: 0x0, symName: __ZNKSt3__112basic_stringIcNS_11char_traitsIcEENS_9allocatorIcEEE4sizeB8ue170006Ev, symObjAddr: 0x1C78, symBinAddr: 0x100004F54, symSize: 0x54 }
  - { offsetInCU: 0xBAC2, offset: 0xBAC2, size: 0x8, addend: 0x0, symName: __ZNKSt3__112basic_stringIcNS_11char_traitsIcEENS_9allocatorIcEEE15__get_long_sizeB8ue170006Ev, symObjAddr: 0x1CCC, symBinAddr: 0x100004FA8, symSize: 0x28 }
  - { offsetInCU: 0xBAE7, offset: 0xBAE7, size: 0x8, addend: 0x0, symName: __ZNKSt3__112basic_stringIcNS_11char_traitsIcEENS_9allocatorIcEEE16__get_short_sizeB8ue170006Ev, symObjAddr: 0x1CF4, symBinAddr: 0x100004FD0, symSize: 0x34 }
  - { offsetInCU: 0xBB0C, offset: 0xBB0C, size: 0x8, addend: 0x0, symName: __ZNKSt3__111__wrap_iterIPKcE4baseB8ue170006Ev, symObjAddr: 0x1D70, symBinAddr: 0x10000504C, symSize: 0x18 }
  - { offsetInCU: 0xBB31, offset: 0xBB31, size: 0x8, addend: 0x0, symName: __ZNKSt3__16vectorIcNS_9allocatorIcEEE11__make_iterB8ue170006EPKc, symObjAddr: 0x1D88, symBinAddr: 0x100005064, symSize: 0x30 }
  - { offsetInCU: 0xBB65, offset: 0xBB65, size: 0x8, addend: 0x0, symName: __ZNSt3__118__unwrap_iter_implINS_11__wrap_iterIPKcEELb1EE8__rewrapB8ue170006ES4_S3_, symObjAddr: 0x1EBC, symBinAddr: 0x100005198, symSize: 0x54 }
  - { offsetInCU: 0xBB96, offset: 0xBB96, size: 0x8, addend: 0x0, symName: __ZNKSt3__111__wrap_iterIPKcEplB8ue170006El, symObjAddr: 0x1F10, symBinAddr: 0x1000051EC, symSize: 0x3C }
  - { offsetInCU: 0xBBD7, offset: 0xBBD7, size: 0x8, addend: 0x0, symName: __ZNSt3__111__wrap_iterIPKcEpLB8ue170006El, symObjAddr: 0x1F70, symBinAddr: 0x10000524C, symSize: 0x28 }
  - { offsetInCU: 0xBC14, offset: 0xBC14, size: 0x8, addend: 0x0, symName: __ZNSt3__119__to_address_helperINS_11__wrap_iterIPKcEEvE6__callB8ue170006ERKS4_, symObjAddr: 0x1F98, symBinAddr: 0x100005274, symSize: 0x30 }
  - { offsetInCU: 0xBC37, offset: 0xBC37, size: 0x8, addend: 0x0, symName: __ZNSt3__114pointer_traitsINS_11__wrap_iterIPKcEEE10to_addressB8ue170006ES4_, symObjAddr: 0x1FC8, symBinAddr: 0x1000052A4, symSize: 0x2C }
  - { offsetInCU: 0xBC5A, offset: 0xBC5A, size: 0x8, addend: 0x0, symName: __ZNSt3__118__unwrap_iter_implINS_11__wrap_iterIPKcEELb1EE8__unwrapB8ue170006ES4_, symObjAddr: 0x20B4, symBinAddr: 0x100005390, symSize: 0x28 }
  - { offsetInCU: 0xBC7D, offset: 0xBC7D, size: 0x8, addend: 0x0, symName: __ZNSt3__112basic_stringIcNS_11char_traitsIcEENS_9allocatorIcEEEC2B8ue170006ILi0EEEPKc, symObjAddr: 0x20DC, symBinAddr: 0x1000053B8, symSize: 0x58 }
  - { offsetInCU: 0xBCBB, offset: 0xBCBB, size: 0x8, addend: 0x0, symName: __ZNSt3__16vectorIcNS_9allocatorIcEEEC2B8ue170006Ev, symObjAddr: 0x2134, symBinAddr: 0x100005410, symSize: 0x44 }
  - { offsetInCU: 0xBCE9, offset: 0xBCE9, size: 0x8, addend: 0x0, symName: __ZNSt3__117__compressed_pairIPcNS_9allocatorIcEEEC1B8ue170006IDnNS_18__default_init_tagEEEOT_OT0_, symObjAddr: 0x2178, symBinAddr: 0x100005454, symSize: 0x3C }
  - { offsetInCU: 0xBD40, offset: 0xBD40, size: 0x8, addend: 0x0, symName: __ZNSt3__117__compressed_pairIPcNS_9allocatorIcEEEC2B8ue170006IDnNS_18__default_init_tagEEEOT_OT0_, symObjAddr: 0x21B4, symBinAddr: 0x100005490, symSize: 0x40 }
  - { offsetInCU: 0xBD97, offset: 0xBD97, size: 0x8, addend: 0x0, symName: __ZNSt3__122__compressed_pair_elemIPcLi0ELb0EEC2B8ue170006IDnvEEOT_, symObjAddr: 0x21F4, symBinAddr: 0x1000054D0, symSize: 0x1C }
  - { offsetInCU: 0xBDD8, offset: 0xBDD8, size: 0x8, addend: 0x0, symName: __ZNSt3__16vectorIcNS_9allocatorIcEEED2B8ue170006Ev, symObjAddr: 0x2210, symBinAddr: 0x1000054EC, symSize: 0x3C }
  - { offsetInCU: 0xBE01, offset: 0xBE01, size: 0x8, addend: 0x0, symName: __ZNSt3__16vectorIcNS_9allocatorIcEEE16__destroy_vectorC1B8ue170006ERS3_, symObjAddr: 0x224C, symBinAddr: 0x100005528, symSize: 0x34 }
  - { offsetInCU: 0xBE39, offset: 0xBE39, size: 0x8, addend: 0x0, symName: __ZNSt3__16vectorIcNS_9allocatorIcEEE16__destroy_vectorclB8ue170006Ev, symObjAddr: 0x2280, symBinAddr: 0x10000555C, symSize: 0x90 }
  - { offsetInCU: 0xBE5E, offset: 0xBE5E, size: 0x8, addend: 0x0, symName: __ZNSt3__16vectorIcNS_9allocatorIcEEE16__destroy_vectorC2B8ue170006ERS3_, symObjAddr: 0x2310, symBinAddr: 0x1000055EC, symSize: 0x20 }
  - { offsetInCU: 0xBE96, offset: 0xBE96, size: 0x8, addend: 0x0, symName: __ZNSt3__16vectorIcNS_9allocatorIcEEE7__clearB8ue170006Ev, symObjAddr: 0x2330, symBinAddr: 0x10000560C, symSize: 0x28 }
  - { offsetInCU: 0xBEBB, offset: 0xBEBB, size: 0x8, addend: 0x0, symName: __ZNKSt3__16vectorIcNS_9allocatorIcEEE17__annotate_deleteB8ue170006Ev, symObjAddr: 0x2358, symBinAddr: 0x100005634, symSize: 0xB8 }
  - { offsetInCU: 0xBEE0, offset: 0xBEE0, size: 0x8, addend: 0x0, symName: __ZNSt3__116allocator_traitsINS_9allocatorIcEEE10deallocateB8ue170006ERS2_Pcm, symObjAddr: 0x2410, symBinAddr: 0x1000056EC, symSize: 0x34 }
  - { offsetInCU: 0xBF22, offset: 0xBF22, size: 0x8, addend: 0x0, symName: __ZNSt3__16vectorIcNS_9allocatorIcEEE7__allocB8ue170006Ev, symObjAddr: 0x2444, symBinAddr: 0x100005720, symSize: 0x28 }
  - { offsetInCU: 0xBF47, offset: 0xBF47, size: 0x8, addend: 0x0, symName: __ZNKSt3__16vectorIcNS_9allocatorIcEEE8capacityB8ue170006Ev, symObjAddr: 0x246C, symBinAddr: 0x100005748, symSize: 0x38 }
  - { offsetInCU: 0xBF6C, offset: 0xBF6C, size: 0x8, addend: 0x0, symName: __ZNSt3__16vectorIcNS_9allocatorIcEEE22__base_destruct_at_endB8ue170006EPc, symObjAddr: 0x24A4, symBinAddr: 0x100005780, symSize: 0xA0 }
  - { offsetInCU: 0xBFAF, offset: 0xBFAF, size: 0x8, addend: 0x0, symName: __ZNSt3__116allocator_traitsINS_9allocatorIcEEE7destroyB8ue170006IcvEEvRS2_PT_, symObjAddr: 0x2544, symBinAddr: 0x100005820, symSize: 0x2C }
  - { offsetInCU: 0xBFEC, offset: 0xBFEC, size: 0x8, addend: 0x0, symName: __ZNSt3__19allocatorIcE7destroyB8ue170006EPc, symObjAddr: 0x2584, symBinAddr: 0x100005860, symSize: 0x14 }
  - { offsetInCU: 0xC01F, offset: 0xC01F, size: 0x8, addend: 0x0, symName: __ZNKSt3__16vectorIcNS_9allocatorIcEEE31__annotate_contiguous_containerB8ue170006EPKvS5_S5_S5_, symObjAddr: 0x2598, symBinAddr: 0x100005874, symSize: 0x20 }
  - { offsetInCU: 0xC070, offset: 0xC070, size: 0x8, addend: 0x0, symName: __ZNKSt3__16vectorIcNS_9allocatorIcEEE4dataB8ue170006Ev, symObjAddr: 0x25B8, symBinAddr: 0x100005894, symSize: 0x28 }
  - { offsetInCU: 0xC095, offset: 0xC095, size: 0x8, addend: 0x0, symName: __ZNKSt3__16vectorIcNS_9allocatorIcEEE4sizeB8ue170006Ev, symObjAddr: 0x25E0, symBinAddr: 0x1000058BC, symSize: 0x20 }
  - { offsetInCU: 0xC0BA, offset: 0xC0BA, size: 0x8, addend: 0x0, symName: __ZNSt3__19allocatorIcE10deallocateB8ue170006EPcm, symObjAddr: 0x2600, symBinAddr: 0x1000058DC, symSize: 0x70 }
  - { offsetInCU: 0xC0FB, offset: 0xC0FB, size: 0x8, addend: 0x0, symName: __ZNSt3__117__compressed_pairIPcNS_9allocatorIcEEE6secondB8ue170006Ev, symObjAddr: 0x26EC, symBinAddr: 0x1000059C8, symSize: 0x24 }
  - { offsetInCU: 0xC120, offset: 0xC120, size: 0x8, addend: 0x0, symName: __ZNSt3__122__compressed_pair_elemINS_9allocatorIcEELi1ELb1EE5__getB8ue170006Ev, symObjAddr: 0x2710, symBinAddr: 0x1000059EC, symSize: 0x14 }
  - { offsetInCU: 0xC145, offset: 0xC145, size: 0x8, addend: 0x0, symName: __ZNKSt3__16vectorIcNS_9allocatorIcEEE9__end_capB8ue170006Ev, symObjAddr: 0x2724, symBinAddr: 0x100005A00, symSize: 0x28 }
  - { offsetInCU: 0xC16A, offset: 0xC16A, size: 0x8, addend: 0x0, symName: __ZNKSt3__117__compressed_pairIPcNS_9allocatorIcEEE5firstB8ue170006Ev, symObjAddr: 0x274C, symBinAddr: 0x100005A28, symSize: 0x24 }
  - { offsetInCU: 0xC18F, offset: 0xC18F, size: 0x8, addend: 0x0, symName: __ZNKSt3__122__compressed_pair_elemIPcLi0ELb0EE5__getB8ue170006Ev, symObjAddr: 0x2770, symBinAddr: 0x100005A4C, symSize: 0x14 }
  - { offsetInCU: 0xC1B4, offset: 0xC1B4, size: 0x8, addend: 0x0, symName: __ZNSt3__16vectorIcNS_9allocatorIcEEE11__make_iterB8ue170006EPc, symObjAddr: 0x2784, symBinAddr: 0x100005A60, symSize: 0x30 }
  - { offsetInCU: 0xC1E8, offset: 0xC1E8, size: 0x8, addend: 0x0, symName: __ZNSt3__111__wrap_iterIPcEC1B8ue170006ES1_, symObjAddr: 0x27B4, symBinAddr: 0x100005A90, symSize: 0x34 }
  - { offsetInCU: 0xC21F, offset: 0xC21F, size: 0x8, addend: 0x0, symName: __ZNSt3__111__wrap_iterIPcEC2B8ue170006ES1_, symObjAddr: 0x27E8, symBinAddr: 0x100005AC4, symSize: 0x20 }
  - { offsetInCU: 0xC256, offset: 0xC256, size: 0x8, addend: 0x0, symName: __ZNSt3__112basic_stringIcNS_11char_traitsIcEENS_9allocatorIcEEE15__make_iteratorB8ue170006EPc, symObjAddr: 0x2808, symBinAddr: 0x100005AE4, symSize: 0x30 }
  - { offsetInCU: 0xC28A, offset: 0xC28A, size: 0x8, addend: 0x0, symName: __ZNSt3__112basic_stringIcNS_11char_traitsIcEENS_9allocatorIcEEE13__get_pointerB8ue170006Ev, symObjAddr: 0x2838, symBinAddr: 0x100005B14, symSize: 0x54 }
  - { offsetInCU: 0xC2AF, offset: 0xC2AF, size: 0x8, addend: 0x0, symName: __ZNSt3__112basic_stringIcNS_11char_traitsIcEENS_9allocatorIcEEE18__get_long_pointerB8ue170006Ev, symObjAddr: 0x288C, symBinAddr: 0x100005B68, symSize: 0x28 }
  - { offsetInCU: 0xC2D4, offset: 0xC2D4, size: 0x8, addend: 0x0, symName: __ZNSt3__112basic_stringIcNS_11char_traitsIcEENS_9allocatorIcEEE19__get_short_pointerB8ue170006Ev, symObjAddr: 0x28B4, symBinAddr: 0x100005B90, symSize: 0x28 }
  - { offsetInCU: 0xC2F9, offset: 0xC2F9, size: 0x8, addend: 0x0, symName: __ZNSt3__117__compressed_pairINS_12basic_stringIcNS_11char_traitsIcEENS_9allocatorIcEEE5__repES5_E5firstB8ue170006Ev, symObjAddr: 0x28DC, symBinAddr: 0x100005BB8, symSize: 0x24 }
  - { offsetInCU: 0xC31E, offset: 0xC31E, size: 0x8, addend: 0x0, symName: __ZNSt3__122__compressed_pair_elemINS_12basic_stringIcNS_11char_traitsIcEENS_9allocatorIcEEE5__repELi0ELb0EE5__getB8ue170006Ev, symObjAddr: 0x2900, symBinAddr: 0x100005BDC, symSize: 0x14 }
  - { offsetInCU: 0xC343, offset: 0xC343, size: 0x8, addend: 0x0, symName: __ZNSt3__114pointer_traitsIPcE10pointer_toB8ue170006ERc, symObjAddr: 0x2914, symBinAddr: 0x100005BF0, symSize: 0x14 }
  - { offsetInCU: 0xC366, offset: 0xC366, size: 0x8, addend: 0x0, symName: __ZNSt3__118__unwrap_iter_implINS_11__wrap_iterIPcEELb1EE8__rewrapB8ue170006ES3_S2_, symObjAddr: 0x2A2C, symBinAddr: 0x100005D08, symSize: 0x54 }
  - { offsetInCU: 0xC397, offset: 0xC397, size: 0x8, addend: 0x0, symName: __ZNKSt3__111__wrap_iterIPcEplB8ue170006El, symObjAddr: 0x2A80, symBinAddr: 0x100005D5C, symSize: 0x3C }
  - { offsetInCU: 0xC3D8, offset: 0xC3D8, size: 0x8, addend: 0x0, symName: __ZNSt3__111__wrap_iterIPcEpLB8ue170006El, symObjAddr: 0x2AE0, symBinAddr: 0x100005DBC, symSize: 0x28 }
  - { offsetInCU: 0xC415, offset: 0xC415, size: 0x8, addend: 0x0, symName: __ZNSt3__119__to_address_helperINS_11__wrap_iterIPcEEvE6__callB8ue170006ERKS3_, symObjAddr: 0x2B08, symBinAddr: 0x100005DE4, symSize: 0x30 }
  - { offsetInCU: 0xC438, offset: 0xC438, size: 0x8, addend: 0x0, symName: __ZNSt3__114pointer_traitsINS_11__wrap_iterIPcEEE10to_addressB8ue170006ES3_, symObjAddr: 0x2B38, symBinAddr: 0x100005E14, symSize: 0x2C }
  - { offsetInCU: 0xC45B, offset: 0xC45B, size: 0x8, addend: 0x0, symName: __ZNKSt3__111__wrap_iterIPcE4baseB8ue170006Ev, symObjAddr: 0x2B64, symBinAddr: 0x100005E40, symSize: 0x18 }
  - { offsetInCU: 0xC480, offset: 0xC480, size: 0x8, addend: 0x0, symName: __ZNSt3__118__unwrap_iter_implINS_11__wrap_iterIPcEELb1EE8__unwrapB8ue170006ES3_, symObjAddr: 0x2C3C, symBinAddr: 0x100005F18, symSize: 0x28 }
  - { offsetInCU: 0xC535, offset: 0xC535, size: 0x8, addend: 0x0, symName: __ZNKSt3__113basic_istreamIcNS_11char_traitsIcEEE6sentrycvbB8ue170006Ev, symObjAddr: 0x2C64, symBinAddr: 0x100005F40, symSize: 0x1C }
  - { offsetInCU: 0xC55A, offset: 0xC55A, size: 0x8, addend: 0x0, symName: __ZNSt3__115basic_streambufIcNS_11char_traitsIcEEE6sbumpcB8ue170006Ev, symObjAddr: 0x2C80, symBinAddr: 0x100005F5C, symSize: 0x78 }
  - { offsetInCU: 0xC57F, offset: 0xC57F, size: 0x8, addend: 0x0, symName: __ZNSt3__111char_traitsIcE12to_char_typeB8ue170006Ei, symObjAddr: 0x2CF8, symBinAddr: 0x100005FD4, symSize: 0x18 }
  - { offsetInCU: 0xC5A2, offset: 0xC5A2, size: 0x8, addend: 0x0, symName: __ZNSt3__18ios_base18__setstate_nothrowB8ue170006Ej, symObjAddr: 0x2D10, symBinAddr: 0x100005FEC, symSize: 0x64 }
  - { offsetInCU: 0xC5D6, offset: 0xC5D6, size: 0x8, addend: 0x0, symName: __ZNKSt3__19basic_iosIcNS_11char_traitsIcEEE10exceptionsB8ue170006Ev, symObjAddr: 0x2D74, symBinAddr: 0x100006050, symSize: 0x24 }
  - { offsetInCU: 0xC5FB, offset: 0xC5FB, size: 0x8, addend: 0x0, symName: __ZNSt3__111char_traitsIcE11to_int_typeB8ue170006Ec, symObjAddr: 0x2D98, symBinAddr: 0x100006074, symSize: 0x14 }
  - { offsetInCU: 0xC61F, offset: 0xC61F, size: 0x8, addend: 0x0, symName: __ZNKSt3__18ios_base10exceptionsB8ue170006Ev, symObjAddr: 0x2DAC, symBinAddr: 0x100006088, symSize: 0x18 }
  - { offsetInCU: 0xC646, offset: 0xC646, size: 0x8, addend: 0x0, symName: __ZNSt3__16vectorIcNS_9allocatorIcEEE9__end_capB8ue170006Ev, symObjAddr: 0x2DC4, symBinAddr: 0x1000060A0, symSize: 0x28 }
  - { offsetInCU: 0xC66B, offset: 0xC66B, size: 0x8, addend: 0x0, symName: __ZNSt3__16vectorIcNS_9allocatorIcEEE22__construct_one_at_endB8ue170006IJRKcEEEvDpOT_, symObjAddr: 0x2DEC, symBinAddr: 0x1000060C8, symSize: 0x98 }
  - { offsetInCU: 0xC6B8, offset: 0xC6B8, size: 0x8, addend: 0x0, symName: __ZNSt3__16vectorIcNS_9allocatorIcEEE21__push_back_slow_pathIRKcEEvOT_, symObjAddr: 0x2E84, symBinAddr: 0x100006160, symSize: 0xE0 }
  - { offsetInCU: 0xC715, offset: 0xC715, size: 0x8, addend: 0x0, symName: __ZNSt3__117__compressed_pairIPcNS_9allocatorIcEEE5firstB8ue170006Ev, symObjAddr: 0x2F64, symBinAddr: 0x100006240, symSize: 0x24 }
  - { offsetInCU: 0xC73A, offset: 0xC73A, size: 0x8, addend: 0x0, symName: __ZNSt3__122__compressed_pair_elemIPcLi0ELb0EE5__getB8ue170006Ev, symObjAddr: 0x2F88, symBinAddr: 0x100006264, symSize: 0x14 }
  - { offsetInCU: 0xC778, offset: 0xC778, size: 0x8, addend: 0x0, symName: __ZNSt3__16vectorIcNS_9allocatorIcEEE21_ConstructTransactionC1B8ue170006ERS3_m, symObjAddr: 0x2F9C, symBinAddr: 0x100006278, symSize: 0x3C }
  - { offsetInCU: 0xC7BF, offset: 0xC7BF, size: 0x8, addend: 0x0, symName: __ZNSt3__116allocator_traitsINS_9allocatorIcEEE9constructB8ue170006IcJRKcEvEEvRS2_PT_DpOT0_, symObjAddr: 0x2FD8, symBinAddr: 0x1000062B4, symSize: 0x34 }
  - { offsetInCU: 0xC816, offset: 0xC816, size: 0x8, addend: 0x0, symName: __ZNSt3__16vectorIcNS_9allocatorIcEEE21_ConstructTransactionD1B8ue170006Ev, symObjAddr: 0x300C, symBinAddr: 0x1000062E8, symSize: 0x2C }
  - { offsetInCU: 0xC83F, offset: 0xC83F, size: 0x8, addend: 0x0, symName: __ZNSt3__16vectorIcNS_9allocatorIcEEE21_ConstructTransactionC2B8ue170006ERS3_m, symObjAddr: 0x3038, symBinAddr: 0x100006314, symSize: 0x44 }
  - { offsetInCU: 0xC886, offset: 0xC886, size: 0x8, addend: 0x0, symName: __ZNSt3__19allocatorIcE9constructB8ue170006IcJRKcEEEvPT_DpOT0_, symObjAddr: 0x307C, symBinAddr: 0x100006358, symSize: 0x28 }
  - { offsetInCU: 0xC8DB, offset: 0xC8DB, size: 0x8, addend: 0x0, symName: __ZNSt3__16vectorIcNS_9allocatorIcEEE21_ConstructTransactionD2B8ue170006Ev, symObjAddr: 0x30A4, symBinAddr: 0x100006380, symSize: 0x20 }
  - { offsetInCU: 0xC903, offset: 0xC903, size: 0x8, addend: 0x0, symName: __ZNKSt3__16vectorIcNS_9allocatorIcEEE11__recommendB8ue170006Em, symObjAddr: 0x30C4, symBinAddr: 0x1000063A0, symSize: 0xB4 }
  - { offsetInCU: 0xC957, offset: 0xC957, size: 0x8, addend: 0x0, symName: __ZNSt3__114__split_bufferIcRNS_9allocatorIcEEEC1EmmS3_, symObjAddr: 0x3178, symBinAddr: 0x100006454, symSize: 0x44 }
  - { offsetInCU: 0xC9AC, offset: 0xC9AC, size: 0x8, addend: 0x0, symName: __ZNSt3__114__split_bufferIcRNS_9allocatorIcEEED1Ev, symObjAddr: 0x32CC, symBinAddr: 0x1000065A8, symSize: 0x2C }
  - { offsetInCU: 0xC9D6, offset: 0xC9D6, size: 0x8, addend: 0x0, symName: __ZNKSt3__16vectorIcNS_9allocatorIcEEE8max_sizeEv, symObjAddr: 0x32F8, symBinAddr: 0x1000065D4, symSize: 0x74 }
  - { offsetInCU: 0xC9FD, offset: 0xC9FD, size: 0x8, addend: 0x0, symName: __ZNKSt3__16vectorIcNS_9allocatorIcEEE20__throw_length_errorB8ue170006Ev, symObjAddr: 0x336C, symBinAddr: 0x100006648, symSize: 0x1C }
  - { offsetInCU: 0xCA2C, offset: 0xCA2C, size: 0x8, addend: 0x0, symName: __ZNSt3__116allocator_traitsINS_9allocatorIcEEE8max_sizeB8ue170006IS2_vEEmRKS2_, symObjAddr: 0x33E0, symBinAddr: 0x1000066BC, symSize: 0x24 }
  - { offsetInCU: 0xCA5A, offset: 0xCA5A, size: 0x8, addend: 0x0, symName: __ZNKSt3__16vectorIcNS_9allocatorIcEEE7__allocB8ue170006Ev, symObjAddr: 0x3404, symBinAddr: 0x1000066E0, symSize: 0x28 }
  - { offsetInCU: 0xCA7F, offset: 0xCA7F, size: 0x8, addend: 0x0, symName: __ZNSt3__114numeric_limitsIlE3maxB8ue170006Ev, symObjAddr: 0x342C, symBinAddr: 0x100006708, symSize: 0x14 }
  - { offsetInCU: 0xCAA7, offset: 0xCAA7, size: 0x8, addend: 0x0, symName: __ZNKSt3__16__lessIvvEclB8ue170006ImmEEbRKT_RKT0_, symObjAddr: 0x3494, symBinAddr: 0x100006770, symSize: 0x34 }
  - { offsetInCU: 0xCAFA, offset: 0xCAFA, size: 0x8, addend: 0x0, symName: __ZNKSt3__19allocatorIcE8max_sizeB8ue170006Ev, symObjAddr: 0x34C8, symBinAddr: 0x1000067A4, symSize: 0x14 }
  - { offsetInCU: 0xCB1F, offset: 0xCB1F, size: 0x8, addend: 0x0, symName: __ZNKSt3__117__compressed_pairIPcNS_9allocatorIcEEE6secondB8ue170006Ev, symObjAddr: 0x34DC, symBinAddr: 0x1000067B8, symSize: 0x24 }
  - { offsetInCU: 0xCB44, offset: 0xCB44, size: 0x8, addend: 0x0, symName: __ZNKSt3__122__compressed_pair_elemINS_9allocatorIcEELi1ELb1EE5__getB8ue170006Ev, symObjAddr: 0x3500, symBinAddr: 0x1000067DC, symSize: 0x14 }
  - { offsetInCU: 0xCB69, offset: 0xCB69, size: 0x8, addend: 0x0, symName: __ZNSt3__123__libcpp_numeric_limitsIlLb1EE3maxB8ue170006Ev, symObjAddr: 0x3514, symBinAddr: 0x1000067F0, symSize: 0x8 }
  - { offsetInCU: 0xCB7D, offset: 0xCB7D, size: 0x8, addend: 0x0, symName: __ZNSt12length_errorC1B8ue170006EPKc, symObjAddr: 0x3580, symBinAddr: 0x10000685C, symSize: 0x34 }
  - { offsetInCU: 0xCBB4, offset: 0xCBB4, size: 0x8, addend: 0x0, symName: __ZNSt12length_errorC2B8ue170006EPKc, symObjAddr: 0x35B4, symBinAddr: 0x100006890, symSize: 0x4C }
  - { offsetInCU: 0xCBEB, offset: 0xCBEB, size: 0x8, addend: 0x0, symName: __ZNSt3__114__split_bufferIcRNS_9allocatorIcEEEC2EmmS3_, symObjAddr: 0x3654, symBinAddr: 0x100006930, symSize: 0xD4 }
  - { offsetInCU: 0xCC5D, offset: 0xCC5D, size: 0x8, addend: 0x0, symName: __ZNSt3__117__compressed_pairIPcRNS_9allocatorIcEEEC1B8ue170006IDnS4_EEOT_OT0_, symObjAddr: 0x3728, symBinAddr: 0x100006A04, symSize: 0x3C }
  - { offsetInCU: 0xCCB4, offset: 0xCCB4, size: 0x8, addend: 0x0, symName: __ZNSt3__114__split_bufferIcRNS_9allocatorIcEEE7__allocB8ue170006Ev, symObjAddr: 0x37A4, symBinAddr: 0x100006A80, symSize: 0x28 }
  - { offsetInCU: 0xCCD9, offset: 0xCCD9, size: 0x8, addend: 0x0, symName: __ZNSt3__114__split_bufferIcRNS_9allocatorIcEEE9__end_capB8ue170006Ev, symObjAddr: 0x37CC, symBinAddr: 0x100006AA8, symSize: 0x28 }
  - { offsetInCU: 0xCCFE, offset: 0xCCFE, size: 0x8, addend: 0x0, symName: __ZNSt3__117__compressed_pairIPcRNS_9allocatorIcEEEC2B8ue170006IDnS4_EEOT_OT0_, symObjAddr: 0x37F4, symBinAddr: 0x100006AD0, symSize: 0x48 }
  - { offsetInCU: 0xCD55, offset: 0xCD55, size: 0x8, addend: 0x0, symName: __ZNSt3__122__compressed_pair_elemIRNS_9allocatorIcEELi1ELb0EEC2B8ue170006IS3_vEEOT_, symObjAddr: 0x383C, symBinAddr: 0x100006B18, symSize: 0x20 }
  - { offsetInCU: 0xCD96, offset: 0xCD96, size: 0x8, addend: 0x0, symName: __ZNSt3__19allocatorIcE8allocateB8ue170006Em, symObjAddr: 0x385C, symBinAddr: 0x100006B38, symSize: 0x84 }
  - { offsetInCU: 0xCDC9, offset: 0xCDC9, size: 0x8, addend: 0x0, symName: __ZNSt3__117__compressed_pairIPcRNS_9allocatorIcEEE6secondB8ue170006Ev, symObjAddr: 0x3960, symBinAddr: 0x100006C3C, symSize: 0x28 }
  - { offsetInCU: 0xCDEE, offset: 0xCDEE, size: 0x8, addend: 0x0, symName: __ZNSt3__122__compressed_pair_elemIRNS_9allocatorIcEELi1ELb0EE5__getB8ue170006Ev, symObjAddr: 0x3988, symBinAddr: 0x100006C64, symSize: 0x18 }
  - { offsetInCU: 0xCE13, offset: 0xCE13, size: 0x8, addend: 0x0, symName: __ZNSt3__117__compressed_pairIPcRNS_9allocatorIcEEE5firstB8ue170006Ev, symObjAddr: 0x39A0, symBinAddr: 0x100006C7C, symSize: 0x24 }
  - { offsetInCU: 0xCE38, offset: 0xCE38, size: 0x8, addend: 0x0, symName: __ZNSt3__116reverse_iteratorIPcEC1B8ue170006ES1_, symObjAddr: 0x3AAC, symBinAddr: 0x100006D88, symSize: 0x34 }
  - { offsetInCU: 0xCE6F, offset: 0xCE6F, size: 0x8, addend: 0x0, symName: __ZNKSt3__116reverse_iteratorIPcE4baseB8ue170006Ev, symObjAddr: 0x3AE0, symBinAddr: 0x100006DBC, symSize: 0x18 }
  - { offsetInCU: 0xCE94, offset: 0xCE94, size: 0x8, addend: 0x0, symName: __ZNKSt3__16vectorIcNS_9allocatorIcEEE14__annotate_newB8ue170006Em, symObjAddr: 0x3B34, symBinAddr: 0x100006E10, symSize: 0xAC }
  - { offsetInCU: 0xCEC8, offset: 0xCEC8, size: 0x8, addend: 0x0, symName: __ZNKSt3__116reverse_iteratorIPcEdeB8ue170006Ev, symObjAddr: 0x3C78, symBinAddr: 0x100006F54, symSize: 0x28 }
  - { offsetInCU: 0xCEFB, offset: 0xCEFB, size: 0x8, addend: 0x0, symName: __ZNSt3__116reverse_iteratorIPcEppB8ue170006Ev, symObjAddr: 0x3CA0, symBinAddr: 0x100006F7C, symSize: 0x20 }
  - { offsetInCU: 0xCF25, offset: 0xCF25, size: 0x8, addend: 0x0, symName: __ZNSt3__119__to_address_helperINS_16reverse_iteratorIPcEEvE6__callB8ue170006ERKS3_, symObjAddr: 0x3D38, symBinAddr: 0x100007014, symSize: 0x4C }
  - { offsetInCU: 0xCF48, offset: 0xCF48, size: 0x8, addend: 0x0, symName: __ZNKSt3__116reverse_iteratorIPcEptB8ue170006Ev, symObjAddr: 0x3D84, symBinAddr: 0x100007060, symSize: 0x24 }
  - { offsetInCU: 0xCF90, offset: 0xCF90, size: 0x8, addend: 0x0, symName: __ZNKSt3__111__move_loopINS_17_ClassicAlgPolicyEEclB8ue170006INS_16reverse_iteratorIPcEES6_S6_EENS_4pairIT_T1_EES8_T0_S9_, symObjAddr: 0x4020, symBinAddr: 0x1000072FC, symSize: 0xA0 }
  - { offsetInCU: 0xCFFF, offset: 0xCFFF, size: 0x8, addend: 0x0, symName: __ZNSt3__18_IterOpsINS_17_ClassicAlgPolicyEE11__iter_moveB8ue170006IRNS_16reverse_iteratorIPcEEEENS_9enable_ifIXsr12is_referenceIDTdeclsr3stdE7declvalIRT_EEEEE5valueEDTclsr3stdE4movedeclsr3stdE7declvalISA_EEEEE4typeEOS9_, symObjAddr: 0x4220, symBinAddr: 0x1000074FC, symSize: 0x28 }
  - { offsetInCU: 0xD02B, offset: 0xD02B, size: 0x8, addend: 0x0, symName: __ZNSt3__18_IterOpsINS_17_ClassicAlgPolicyEE25__validate_iter_referenceB8ue170006IRNS_16reverse_iteratorIPcEEEEvv, symObjAddr: 0x4248, symBinAddr: 0x100007524, symSize: 0x4 }
  - { offsetInCU: 0xD049, offset: 0xD049, size: 0x8, addend: 0x0, symName: __ZNSt3__118__unwrap_iter_implINS_16reverse_iteratorIPcEELb0EE8__unwrapB8ue170006ES3_, symObjAddr: 0x424C, symBinAddr: 0x100007528, symSize: 0x24 }
  - { offsetInCU: 0xD06C, offset: 0xD06C, size: 0x8, addend: 0x0, symName: __ZNSt3__14pairINS_16reverse_iteratorIPcEES3_EC1B8ue170006ERKS3_S6_, symObjAddr: 0x4270, symBinAddr: 0x10000754C, symSize: 0x3C }
  - { offsetInCU: 0xD0B1, offset: 0xD0B1, size: 0x8, addend: 0x0, symName: __ZNSt3__14pairINS_16reverse_iteratorIPcEES3_EC2B8ue170006ERKS3_S6_, symObjAddr: 0x42AC, symBinAddr: 0x100007588, symSize: 0x34 }
  - { offsetInCU: 0xD0F6, offset: 0xD0F6, size: 0x8, addend: 0x0, symName: __ZNSt3__118__unwrap_iter_implINS_16reverse_iteratorIPcEELb0EE8__rewrapB8ue170006ES3_S3_, symObjAddr: 0x42E0, symBinAddr: 0x1000075BC, symSize: 0x2C }
  - { offsetInCU: 0xD123, offset: 0xD123, size: 0x8, addend: 0x0, symName: __ZNSt3__116reverse_iteratorIPcEC2B8ue170006ES1_, symObjAddr: 0x430C, symBinAddr: 0x1000075E8, symSize: 0x28 }
  - { offsetInCU: 0xD15A, offset: 0xD15A, size: 0x8, addend: 0x0, symName: __ZNSt3__114__split_bufferIcRNS_9allocatorIcEEED2Ev, symObjAddr: 0x4334, symBinAddr: 0x100007610, symSize: 0x80 }
  - { offsetInCU: 0xD185, offset: 0xD185, size: 0x8, addend: 0x0, symName: __ZNSt3__114__split_bufferIcRNS_9allocatorIcEEE5clearB8ue170006Ev, symObjAddr: 0x43B4, symBinAddr: 0x100007690, symSize: 0x28 }
  - { offsetInCU: 0xD1AA, offset: 0xD1AA, size: 0x8, addend: 0x0, symName: __ZNKSt3__114__split_bufferIcRNS_9allocatorIcEEE8capacityB8ue170006Ev, symObjAddr: 0x43DC, symBinAddr: 0x1000076B8, symSize: 0x38 }
  - { offsetInCU: 0xD1CF, offset: 0xD1CF, size: 0x8, addend: 0x0, symName: __ZNSt3__114__split_bufferIcRNS_9allocatorIcEEE17__destruct_at_endB8ue170006EPc, symObjAddr: 0x4414, symBinAddr: 0x1000076F0, symSize: 0x2C }
  - { offsetInCU: 0xD201, offset: 0xD201, size: 0x8, addend: 0x0, symName: __ZNSt3__114__split_bufferIcRNS_9allocatorIcEEE17__destruct_at_endB8ue170006EPcNS_17integral_constantIbLb0EEE, symObjAddr: 0x4440, symBinAddr: 0x10000771C, symSize: 0x94 }
  - { offsetInCU: 0xD240, offset: 0xD240, size: 0x8, addend: 0x0, symName: __ZNKSt3__114__split_bufferIcRNS_9allocatorIcEEE9__end_capB8ue170006Ev, symObjAddr: 0x44D4, symBinAddr: 0x1000077B0, symSize: 0x28 }
  - { offsetInCU: 0xD265, offset: 0xD265, size: 0x8, addend: 0x0, symName: __ZNKSt3__117__compressed_pairIPcRNS_9allocatorIcEEE5firstB8ue170006Ev, symObjAddr: 0x44FC, symBinAddr: 0x1000077D8, symSize: 0x24 }
...
